; Function Attrs: null_pointer_is_valid sspstrong uwtable
define range(i32 -6, 1) i32 @wtap_block_get_nth_bytes_option_value(ptr noundef readonly captures(address_is_null) %0, i32 noundef %1, i32 noundef %2, ptr noundef writeonly captures(none) %3) local_unnamed_addr #0 {
  %5 = icmp eq ptr %0, null
  br i1 %5, label %wtap_block_get_nth_option_common.exit.thread, label %6

6:                                                ; preds = %4
  %7 = load ptr, ptr %0, align 8
  %8 = getelementptr inbounds nuw i8, ptr %7, i64 48
  %9 = load ptr, ptr %8, align 8
  %10 = zext i32 %1 to i64
  %11 = inttoptr i64 %10 to ptr
  %12 = tail call ptr @g_hash_table_lookup(ptr noundef %9, ptr noundef %11)
  %13 = icmp eq ptr %12, null
  br i1 %13, label %wtap_block_get_nth_option_common.exit.thread, label %14

14:                                               ; preds = %6
  %15 = getelementptr inbounds nuw i8, ptr %12, i64 16
  %16 = load i32, ptr %15, align 8
  %.not.i = icmp eq i32 %16, 4
  br i1 %.not.i, label %17, label %wtap_block_get_nth_option_common.exit.thread

17:                                               ; preds = %14
  %18 = getelementptr inbounds nuw i8, ptr %12, i64 20
  %19 = load i32, ptr %18, align 4
  %20 = and i32 %19, 1
  %.not16.i = icmp eq i32 %20, 0
  br i1 %.not16.i, label %wtap_block_get_nth_option_common.exit.thread, label %21

21:                                               ; preds = %17
  %22 = getelementptr inbounds nuw i8, ptr %0, i64 16
  %23 = load ptr, ptr %22, align 8
  %24 = getelementptr inbounds nuw i8, ptr %23, i64 8
  %25 = load i32, ptr %24, align 8
  %.not.i.i = icmp eq i32 %25, 0
  br i1 %.not.i.i, label %wtap_block_get_nth_option_common.exit.thread, label %.lr.ph.i.i

.lr.ph.i.i:                                       ; preds = %21
  %26 = load ptr, ptr %23, align 8
  %wide.trip.count.i.i = zext i32 %25 to i64
  br label %27

27:                                               ; preds = %35, %.lr.ph.i.i
  %indvars.iv.i.i = phi i64 [ 0, %.lr.ph.i.i ], [ %indvars.iv.next.i.i, %35 ]
  %.016.i.i = phi i32 [ 0, %.lr.ph.i.i ], [ %.1.i.i, %35 ]
  %28 = getelementptr %struct.wtap_option_t, ptr %26, i64 %indvars.iv.i.i
  %29 = load i32, ptr %28, align 8
  %30 = icmp eq i32 %29, %1
  br i1 %30, label %31, label %35

31:                                               ; preds = %27
  %32 = icmp eq i32 %.016.i.i, %2
  br i1 %32, label %36, label %33

33:                                               ; preds = %31
  %34 = add i32 %.016.i.i, 1
  br label %35

35:                                               ; preds = %33, %27
  %.1.i.i = phi i32 [ %34, %33 ], [ %.016.i.i, %27 ]
  %indvars.iv.next.i.i = add nuw nsw i64 %indvars.iv.i.i, 1
  %exitcond.not.i.i = icmp eq i64 %indvars.iv.next.i.i, %wide.trip.count.i.i
  br i1 %exitcond.not.i.i, label %wtap_block_get_nth_option_common.exit.thread, label %27, !llvm.loop !18

36:                                               ; preds = %31
  %37 = getelementptr inbounds nuw i8, ptr %28, i64 8
  %38 = load ptr, ptr %37, align 8
  store ptr %38, ptr %3, align 8
  br label %wtap_block_get_nth_option_common.exit.thread

wtap_block_get_nth_option_common.exit.thread:     ; preds = %35, %21, %17, %14, %6, %4, %36
  %.0 = phi i32 [ 0, %36 ], [ -2, %21 ], [ -4, %17 ], [ -3, %14 ], [ -1, %6 ], [ -6, %4 ], [ -2, %35 ]
  ret i32 %.0
}